target datalayout = "e-m:e-p270:32:32-p271:32:32-p272:64:64-i64:64-i128:128-f80:128-n8:16:32:64-S128"
target triple = "x86_64-pc-linux-gnu"

%struct.OSQPCscMatrix = type { i64, i64, ptr, ptr, ptr, i64, i64 }

; Function Attrs: nounwind uwtable
define void @vec_mult_scalar(ptr noundef %0, double noundef %1, i64 noundef %2) #0 {
  %4 = alloca ptr, align 8
  %5 = alloca double, align 8
  %6 = alloca i64, align 8
  %7 = alloca i64, align 8
  store ptr %0, ptr %4, align 8, !tbaa !3
  store double %1, ptr %5, align 8, !tbaa !8
  store i64 %2, ptr %6, align 8, !tbaa !10
  call void @llvm.lifetime.start.p0(i64 8, ptr %7) #3
  store i64 0, ptr %7, align 8, !tbaa !10
  br label %8

8:                                                ; preds = %19, %3
  %9 = load i64, ptr %7, align 8, !tbaa !10
  %10 = load i64, ptr %6, align 8, !tbaa !10
  %11 = icmp slt i64 %9, %10
  br i1 %11, label %12, label %22

12:                                               ; preds = %8
  %13 = load double, ptr %5, align 8, !tbaa !8
  %14 = load ptr, ptr %4, align 8, !tbaa !3
  %15 = load i64, ptr %7, align 8, !tbaa !10
  %16 = getelementptr inbounds double, ptr %14, i64 %15
  %17 = load double, ptr %16, align 8, !tbaa !8
  %18 = fmul double %17, %13
  store double %18, ptr %16, align 8, !tbaa !8
  br label %19

19:                                               ; preds = %12
  %20 = load i64, ptr %7, align 8, !tbaa !10
  %21 = add nsw i64 %20, 1
  store i64 %21, ptr %7, align 8, !tbaa !10
  br label %8, !llvm.loop !14

22:                                               ; preds = %8
  call void @llvm.lifetime.end.p0(i64 8, ptr %7) #3
  ret void
}

; Function Attrs: nounwind uwtable
define void @vec_negate(ptr noundef %0, i64 noundef %1) #0 {
  %3 = alloca ptr, align 8
  %4 = alloca i64, align 8
  %5 = alloca i64, align 8
  store ptr %0, ptr %3, align 8, !tbaa !3
  store i64 %1, ptr %4, align 8, !tbaa !10
  call void @llvm.lifetime.start.p0(i64 8, ptr %5) #3
  store i64 0, ptr %5, align 8, !tbaa !10
  br label %6

6:                                                ; preds = %19, %2
  %7 = load i64, ptr %5, align 8, !tbaa !10
  %8 = load i64, ptr %4, align 8, !tbaa !10
  %9 = icmp slt i64 %7, %8
  br i1 %9, label %10, label %22

10:                                               ; preds = %6
  %11 = load ptr, ptr %3, align 8, !tbaa !3
  %12 = load i64, ptr %5, align 8, !tbaa !10
  %13 = getelementptr inbounds double, ptr %11, i64 %12
  %14 = load double, ptr %13, align 8, !tbaa !8
  %15 = fneg double %14
  %16 = load ptr, ptr %3, align 8, !tbaa !3
  %17 = load i64, ptr %5, align 8, !tbaa !10
  %18 = getelementptr inbounds double, ptr %16, i64 %17
  store double %15, ptr %18, align 8, !tbaa !8
  br label %19

19:                                               ; preds = %10
  %20 = load i64, ptr %5, align 8, !tbaa !10
  %21 = add nsw i64 %20, 1
  store i64 %21, ptr %5, align 8, !tbaa !10
  br label %6, !llvm.loop !15

22:                                               ; preds = %6
  call void @llvm.lifetime.end.p0(i64 8, ptr %5) #3
  ret void
}

; Function Attrs: nounwind uwtable
define void @vec_set_scalar(ptr noundef %0, double noundef %1, i64 noundef %2) #0 {
  %4 = alloca ptr, align 8
  %5 = alloca double, align 8
  %6 = alloca i64, align 8
  %7 = alloca i64, align 8
  store ptr %0, ptr %4, align 8, !tbaa !3
  store double %1, ptr %5, align 8, !tbaa !8
  store i64 %2, ptr %6, align 8, !tbaa !10
  call void @llvm.lifetime.start.p0(i64 8, ptr %7) #3
  store i64 0, ptr %7, align 8, !tbaa !10
  br label %8

8:                                                ; preds = %17, %3
  %9 = load i64, ptr %7, align 8, !tbaa !10
  %10 = load i64, ptr %6, align 8, !tbaa !10
  %11 = icmp slt i64 %9, %10
  br i1 %11, label %12, label %20

12:                                               ; preds = %8
  %13 = load double, ptr %5, align 8, !tbaa !8
  %14 = load ptr, ptr %4, align 8, !tbaa !3
  %15 = load i64, ptr %7, align 8, !tbaa !10
  %16 = getelementptr inbounds double, ptr %14, i64 %15
  store double %13, ptr %16, align 8, !tbaa !8
  br label %17

17:                                               ; preds = %12
  %18 = load i64, ptr %7, align 8, !tbaa !10
  %19 = add nsw i64 %18, 1
  store i64 %19, ptr %7, align 8, !tbaa !10
  br label %8, !llvm.loop !12

20:                                               ; preds = %8
  call void @llvm.lifetime.end.p0(i64 8, ptr %7) #3
  ret void
}

; Function Attrs: nounwind uwtable
define void @csc_Axpy(ptr noundef %0, ptr noundef %1, ptr noundef %2, double noundef %3, double noundef %4) #0 {
  %6 = alloca ptr, align 8
  %7 = alloca ptr, align 8
  %8 = alloca ptr, align 8
  %9 = alloca double, align 8
  %10 = alloca double, align 8
  %11 = alloca i64, align 8
  %12 = alloca i64, align 8
  %13 = alloca ptr, align 8
  %14 = alloca ptr, align 8
  %15 = alloca i64, align 8
  %16 = alloca i64, align 8
  %17 = alloca ptr, align 8
  %18 = alloca i32, align 4
  store ptr %0, ptr %6, align 8, !tbaa !16
  store ptr %1, ptr %7, align 8, !tbaa !3
  store ptr %2, ptr %8, align 8, !tbaa !3
  store double %3, ptr %9, align 8, !tbaa !8
  store double %4, ptr %10, align 8, !tbaa !8
  call void @llvm.lifetime.start.p0(i64 8, ptr %11) #3
  call void @llvm.lifetime.start.p0(i64 8, ptr %12) #3
  call void @llvm.lifetime.start.p0(i64 8, ptr %13) #3
  %19 = load ptr, ptr %6, align 8, !tbaa !16
  %20 = getelementptr inbounds nuw %struct.OSQPCscMatrix, ptr %19, i32 0, i32 2
  %21 = load ptr, ptr %20, align 8, !tbaa !23
  store ptr %21, ptr %13, align 8, !tbaa !17
  call void @llvm.lifetime.start.p0(i64 8, ptr %14) #3
  %22 = load ptr, ptr %6, align 8, !tbaa !16
  %23 = getelementptr inbounds nuw %struct.OSQPCscMatrix, ptr %22, i32 0, i32 3
  %24 = load ptr, ptr %23, align 8, !tbaa !26
  store ptr %24, ptr %14, align 8, !tbaa !17
  call void @llvm.lifetime.start.p0(i64 8, ptr %15) #3
  %25 = load ptr, ptr %6, align 8, !tbaa !16
  %26 = getelementptr inbounds nuw %struct.OSQPCscMatrix, ptr %25, i32 0, i32 1
  %27 = load i64, ptr %26, align 8, !tbaa !24
  store i64 %27, ptr %15, align 8, !tbaa !10
  call void @llvm.lifetime.start.p0(i64 8, ptr %16) #3
  %28 = load ptr, ptr %6, align 8, !tbaa !16
  %29 = getelementptr inbounds nuw %struct.OSQPCscMatrix, ptr %28, i32 0, i32 0
  %30 = load i64, ptr %29, align 8, !tbaa !33
  store i64 %30, ptr %16, align 8, !tbaa !10
  call void @llvm.lifetime.start.p0(i64 8, ptr %17) #3
  %31 = load ptr, ptr %6, align 8, !tbaa !16
  %32 = getelementptr inbounds nuw %struct.OSQPCscMatrix, ptr %31, i32 0, i32 4
  %33 = load ptr, ptr %32, align 8, !tbaa !19
  store ptr %33, ptr %17, align 8, !tbaa !3
  %34 = load double, ptr %10, align 8, !tbaa !8
  %35 = fcmp oeq double %34, 0.000000e+00
  br i1 %35, label %36, label %39

36:                                               ; preds = %5
  %37 = load ptr, ptr %8, align 8, !tbaa !3
  %38 = load i64, ptr %16, align 8, !tbaa !10
  call void @vec_set_scalar(ptr noundef %37, double noundef 0.000000e+00, i64 noundef %38)
  br label %55

39:                                               ; preds = %5
  %40 = load double, ptr %10, align 8, !tbaa !8
  %41 = fcmp oeq double %40, 1.000000e+00
  br i1 %41, label %42, label %43

42:                                               ; preds = %39
  br label %54

43:                                               ; preds = %39
  %44 = load double, ptr %10, align 8, !tbaa !8
  %45 = fcmp oeq double %44, -1.000000e+00
  br i1 %45, label %46, label %49

46:                                               ; preds = %43
  %47 = load ptr, ptr %8, align 8, !tbaa !3
  %48 = load i64, ptr %16, align 8, !tbaa !10
  call void @vec_negate(ptr noundef %47, i64 noundef %48)
  br label %53

49:                                               ; preds = %43
  %50 = load ptr, ptr %8, align 8, !tbaa !3
  %51 = load double, ptr %10, align 8, !tbaa !8
  %52 = load i64, ptr %16, align 8, !tbaa !10
  call void @vec_mult_scalar(ptr noundef %50, double noundef %51, i64 noundef %52)
  br label %53

53:                                               ; preds = %49, %46
  br label %54

54:                                               ; preds = %53, %42
  br label %55

55:                                               ; preds = %54, %36
  %56 = load ptr, ptr %13, align 8, !tbaa !17
  %57 = load i64, ptr %15, align 8, !tbaa !10
  %58 = getelementptr inbounds i64, ptr %56, i64 %57
  %59 = load i64, ptr %58, align 8, !tbaa !10
  %60 = icmp eq i64 %59, 0
  br i1 %60, label %64, label %61

61:                                               ; preds = %55
  %62 = load double, ptr %9, align 8, !tbaa !8
  %63 = fcmp oeq double %62, 0.000000e+00
  br i1 %63, label %64, label %65

64:                                               ; preds = %61, %55
  store i32 1, ptr %18, align 4
  br label %205

65:                                               ; preds = %61
  %66 = load double, ptr %9, align 8, !tbaa !8
  %67 = fcmp oeq double %66, -1.000000e+00
  br i1 %67, label %68, label %112

68:                                               ; preds = %65
  store i64 0, ptr %12, align 8, !tbaa !10
  br label %69

69:                                               ; preds = %108, %68
  %70 = load i64, ptr %12, align 8, !tbaa !10
  %71 = load i64, ptr %15, align 8, !tbaa !10
  %72 = icmp slt i64 %70, %71
  br i1 %72, label %73, label %111

73:                                               ; preds = %69
  %74 = load ptr, ptr %13, align 8, !tbaa !17
  %75 = load i64, ptr %12, align 8, !tbaa !10
  %76 = getelementptr inbounds i64, ptr %74, i64 %75
  %77 = load i64, ptr %76, align 8, !tbaa !10
  store i64 %77, ptr %11, align 8, !tbaa !10
  br label %78

78:                                               ; preds = %104, %73
  %79 = load i64, ptr %11, align 8, !tbaa !10
  %80 = load ptr, ptr %13, align 8, !tbaa !17
  %81 = load i64, ptr %12, align 8, !tbaa !10
  %82 = add nsw i64 %81, 1
  %83 = getelementptr inbounds i64, ptr %80, i64 %82
  %84 = load i64, ptr %83, align 8, !tbaa !10
  %85 = icmp slt i64 %79, %84
  br i1 %85, label %86, label %107

86:                                               ; preds = %78
  %87 = load ptr, ptr %17, align 8, !tbaa !3
  %88 = load i64, ptr %11, align 8, !tbaa !10
  %89 = getelementptr inbounds double, ptr %87, i64 %88
  %90 = load double, ptr %89, align 8, !tbaa !8
  %91 = load ptr, ptr %7, align 8, !tbaa !3
  %92 = load i64, ptr %12, align 8, !tbaa !10
  %93 = getelementptr inbounds double, ptr %91, i64 %92
  %94 = load double, ptr %93, align 8, !tbaa !8
  %95 = load ptr, ptr %8, align 8, !tbaa !3
  %96 = load ptr, ptr %14, align 8, !tbaa !17
  %97 = load i64, ptr %11, align 8, !tbaa !10
  %98 = getelementptr inbounds i64, ptr %96, i64 %97
  %99 = load i64, ptr %98, align 8, !tbaa !10
  %100 = getelementptr inbounds double, ptr %95, i64 %99
  %101 = load double, ptr %100, align 8, !tbaa !8
  %102 = fneg double %90
  %103 = call double @llvm.fmuladd.f64(double %102, double %94, double %101)
  store double %103, ptr %100, align 8, !tbaa !8
  br label %104

104:                                              ; preds = %86
  %105 = load i64, ptr %11, align 8, !tbaa !10
  %106 = add nsw i64 %105, 1
  store i64 %106, ptr %11, align 8, !tbaa !10
  br label %78, !llvm.loop !40

107:                                              ; preds = %78
  br label %108

108:                                              ; preds = %107
  %109 = load i64, ptr %12, align 8, !tbaa !10
  %110 = add nsw i64 %109, 1
  store i64 %110, ptr %12, align 8, !tbaa !10
  br label %69, !llvm.loop !41

111:                                              ; preds = %69
  br label %204

112:                                              ; preds = %65
  %113 = load double, ptr %9, align 8, !tbaa !8
  %114 = fcmp oeq double %113, 1.000000e+00
  br i1 %114, label %115, label %158

115:                                              ; preds = %112
  store i64 0, ptr %12, align 8, !tbaa !10
  br label %116

116:                                              ; preds = %154, %115
  %117 = load i64, ptr %12, align 8, !tbaa !10
  %118 = load i64, ptr %15, align 8, !tbaa !10
  %119 = icmp slt i64 %117, %118
  br i1 %119, label %120, label %157

120:                                              ; preds = %116
  %121 = load ptr, ptr %13, align 8, !tbaa !17
  %122 = load i64, ptr %12, align 8, !tbaa !10
  %123 = getelementptr inbounds i64, ptr %121, i64 %122
  %124 = load i64, ptr %123, align 8, !tbaa !10
  store i64 %124, ptr %11, align 8, !tbaa !10
  br label %125

125:                                              ; preds = %150, %120
  %126 = load i64, ptr %11, align 8, !tbaa !10
  %127 = load ptr, ptr %13, align 8, !tbaa !17
  %128 = load i64, ptr %12, align 8, !tbaa !10
  %129 = add nsw i64 %128, 1
  %130 = getelementptr inbounds i64, ptr %127, i64 %129
  %131 = load i64, ptr %130, align 8, !tbaa !10
  %132 = icmp slt i64 %126, %131
  br i1 %132, label %133, label %153

133:                                              ; preds = %125
  %134 = load ptr, ptr %17, align 8, !tbaa !3
  %135 = load i64, ptr %11, align 8, !tbaa !10
  %136 = getelementptr inbounds double, ptr %134, i64 %135
  %137 = load double, ptr %136, align 8, !tbaa !8
  %138 = load ptr, ptr %7, align 8, !tbaa !3
  %139 = load i64, ptr %12, align 8, !tbaa !10
  %140 = getelementptr inbounds double, ptr %138, i64 %139
  %141 = load double, ptr %140, align 8, !tbaa !8
  %142 = load ptr, ptr %8, align 8, !tbaa !3
  %143 = load ptr, ptr %14, align 8, !tbaa !17
  %144 = load i64, ptr %11, align 8, !tbaa !10
  %145 = getelementptr inbounds i64, ptr %143, i64 %144
  %146 = load i64, ptr %145, align 8, !tbaa !10
  %147 = getelementptr inbounds double, ptr %142, i64 %146
  %148 = load double, ptr %147, align 8, !tbaa !8
  %149 = call double @llvm.fmuladd.f64(double %137, double %141, double %148)
  store double %149, ptr %147, align 8, !tbaa !8
  br label %150

150:                                              ; preds = %133
  %151 = load i64, ptr %11, align 8, !tbaa !10
  %152 = add nsw i64 %151, 1
  store i64 %152, ptr %11, align 8, !tbaa !10
  br label %125, !llvm.loop !42

153:                                              ; preds = %125
  br label %154

154:                                              ; preds = %153
  %155 = load i64, ptr %12, align 8, !tbaa !10
  %156 = add nsw i64 %155, 1
  store i64 %156, ptr %12, align 8, !tbaa !10
  br label %116, !llvm.loop !43

157:                                              ; preds = %116
  br label %203

158:                                              ; preds = %112
  store i64 0, ptr %12, align 8, !tbaa !10
  br label %159

159:                                              ; preds = %199, %158
  %160 = load i64, ptr %12, align 8, !tbaa !10
  %161 = load i64, ptr %15, align 8, !tbaa !10
  %162 = icmp slt i64 %160, %161
  br i1 %162, label %163, label %202

163:                                              ; preds = %159
  %164 = load ptr, ptr %13, align 8, !tbaa !17
  %165 = load i64, ptr %12, align 8, !tbaa !10
  %166 = getelementptr inbounds i64, ptr %164, i64 %165
  %167 = load i64, ptr %166, align 8, !tbaa !10
  store i64 %167, ptr %11, align 8, !tbaa !10
  br label %168

168:                                              ; preds = %195, %163
  %169 = load i64, ptr %11, align 8, !tbaa !10
  %170 = load ptr, ptr %13, align 8, !tbaa !17
  %171 = load i64, ptr %12, align 8, !tbaa !10
  %172 = add nsw i64 %171, 1
  %173 = getelementptr inbounds i64, ptr %170, i64 %172
  %174 = load i64, ptr %173, align 8, !tbaa !10
  %175 = icmp slt i64 %169, %174
  br i1 %175, label %176, label %198

176:                                              ; preds = %168
  %177 = load double, ptr %9, align 8, !tbaa !8
  %178 = load ptr, ptr %17, align 8, !tbaa !3
  %179 = load i64, ptr %11, align 8, !tbaa !10
  %180 = getelementptr inbounds double, ptr %178, i64 %179
  %181 = load double, ptr %180, align 8, !tbaa !8
  %182 = fmul double %177, %181
  %183 = load ptr, ptr %7, align 8, !tbaa !3
  %184 = load i64, ptr %12, align 8, !tbaa !10
  %185 = getelementptr inbounds double, ptr %183, i64 %184
  %186 = load double, ptr %185, align 8, !tbaa !8
  %187 = load ptr, ptr %8, align 8, !tbaa !3
  %188 = load ptr, ptr %14, align 8, !tbaa !17
  %189 = load i64, ptr %11, align 8, !tbaa !10
  %190 = getelementptr inbounds i64, ptr %188, i64 %189
  %191 = load i64, ptr %190, align 8, !tbaa !10
  %192 = getelementptr inbounds double, ptr %187, i64 %191
  %193 = load double, ptr %192, align 8, !tbaa !8
  %194 = call double @llvm.fmuladd.f64(double %182, double %186, double %193)
  store double %194, ptr %192, align 8, !tbaa !8
  br label %195

195:                                              ; preds = %176
  %196 = load i64, ptr %11, align 8, !tbaa !10
  %197 = add nsw i64 %196, 1
  store i64 %197, ptr %11, align 8, !tbaa !10
  br label %168, !llvm.loop !44

198:                                              ; preds = %168
  br label %199

199:                                              ; preds = %198
  %200 = load i64, ptr %12, align 8, !tbaa !10
  %201 = add nsw i64 %200, 1
  store i64 %201, ptr %12, align 8, !tbaa !10
  br label %159, !llvm.loop !45

202:                                              ; preds = %159
  br label %203

203:                                              ; preds = %202, %157
  br label %204

204:                                              ; preds = %203, %111
  store i32 0, ptr %18, align 4
  br label %205

205:                                              ; preds = %204, %64
  call void @llvm.lifetime.end.p0(i64 8, ptr %17) #3
  call void @llvm.lifetime.end.p0(i64 8, ptr %16) #3
  call void @llvm.lifetime.end.p0(i64 8, ptr %15) #3
  call void @llvm.lifetime.end.p0(i64 8, ptr %14) #3
  call void @llvm.lifetime.end.p0(i64 8, ptr %13) #3
  call void @llvm.lifetime.end.p0(i64 8, ptr %12) #3
  call void @llvm.lifetime.end.p0(i64 8, ptr %11) #3
  %206 = load i32, ptr %18, align 4
  switch i32 %206, label %208 [
    i32 0, label %207
    i32 1, label %207
  ]

207:                                              ; preds = %205, %205
  ret void

208:                                              ; preds = %205
  unreachable
}