; Function Attrs: nofree norecurse nosync nounwind memory(read, argmem: readwrite, inaccessiblemem: none) uwtable
define void @csc_Axpy(ptr noundef readonly captures(none) %0, ptr noundef readonly captures(none) %1, ptr noundef captures(none) %2, double noundef %3, double noundef %4) local_unnamed_addr #4 {
  %6 = getelementptr inbounds nuw i8, ptr %0, i64 16
  %7 = load ptr, ptr %6, align 8, !tbaa !20
  %8 = getelementptr inbounds nuw i8, ptr %0, i64 24
  %9 = load ptr, ptr %8, align 8, !tbaa !23
  %10 = getelementptr inbounds nuw i8, ptr %0, i64 8
  %11 = load i64, ptr %10, align 8, !tbaa !21
  %12 = load i64, ptr %0, align 8, !tbaa !30
  %13 = getelementptr inbounds nuw i8, ptr %0, i64 32
  %14 = load ptr, ptr %13, align 8, !tbaa !11
  %15 = fcmp oeq double %4, 0.000000e+00
  br i1 %15, label %16, label %19

16:                                               ; preds = %5
  %17 = icmp sgt i64 %12, 0
  br i1 %17, label %.lr.ph.i.preheader, label %vec_set_scalar.exit

.lr.ph.i.preheader:                               ; preds = %16
  %18 = shl nuw i64 %12, 3
  tail call void @llvm.memset.p0.i64(ptr align 8 %2, i8 0, i64 %18, i1 false), !tbaa !3
  br label %vec_set_scalar.exit

19:                                               ; preds = %5
  %20 = fcmp oeq double %4, 1.000000e+00
  br i1 %20, label %vec_set_scalar.exit, label %21

21:                                               ; preds = %19
  %22 = fcmp oeq double %4, -1.000000e+00
  %23 = icmp sgt i64 %12, 0
  br i1 %22, label %24, label %29

24:                                               ; preds = %21
  br i1 %23, label %.lr.ph.i74, label %vec_set_scalar.exit

.lr.ph.i74:                                       ; preds = %24, %.lr.ph.i74
  %.06.i = phi i64 [ %28, %.lr.ph.i74 ], [ 0, %24 ]
  %25 = getelementptr inbounds nuw double, ptr %2, i64 %.06.i
  %26 = load double, ptr %25, align 8, !tbaa !3
  %27 = fneg double %26
  store double %27, ptr %25, align 8, !tbaa !3
  %28 = add nuw nsw i64 %.06.i, 1
  %exitcond.not.i75 = icmp eq i64 %28, %12
  br i1 %exitcond.not.i75, label %vec_set_scalar.exit, label %.lr.ph.i74, !llvm.loop !10

29:                                               ; preds = %21
  br i1 %23, label %.lr.ph.i76, label %vec_set_scalar.exit

.lr.ph.i76:                                       ; preds = %29, %.lr.ph.i76
  %.05.i77 = phi i64 [ %33, %.lr.ph.i76 ], [ 0, %29 ]
  %30 = getelementptr inbounds nuw double, ptr %2, i64 %.05.i77
  %31 = load double, ptr %30, align 8, !tbaa !3
  %32 = fmul double %4, %31
  store double %32, ptr %30, align 8, !tbaa !3
  %33 = add nuw nsw i64 %.05.i77, 1
  %exitcond.not.i78 = icmp eq i64 %33, %12
  br i1 %exitcond.not.i78, label %vec_set_scalar.exit, label %.lr.ph.i76, !llvm.loop !9

vec_set_scalar.exit:                              ; preds = %.lr.ph.i76, %.lr.ph.i74, %.lr.ph.i.preheader, %29, %24, %16, %19
  %34 = getelementptr inbounds i64, ptr %7, i64 %11
  %35 = load i64, ptr %34, align 8, !tbaa !17
  %36 = icmp eq i64 %35, 0
  %37 = fcmp oeq double %3, 0.000000e+00
  %or.cond = or i1 %37, %36
  br i1 %or.cond, label %.loopexit79, label %38

38:                                               ; preds = %vec_set_scalar.exit
  %39 = fcmp oeq double %3, -1.000000e+00
  br i1 %39, label %.preheader, label %58

.preheader:                                       ; preds = %38
  %40 = icmp sgt i64 %11, 0
  br i1 %40, label %.lr.ph100.preheader, label %.loopexit79

.lr.ph100.preheader:                              ; preds = %.preheader
  %.pre111 = load i64, ptr %7, align 8, !tbaa !17
  br label %.lr.ph100

.loopexit:                                        ; preds = %47, %.lr.ph100
  %exitcond109.not = icmp eq i64 %42, %11
  br i1 %exitcond109.not, label %.loopexit79, label %.lr.ph100, !llvm.loop !37

.lr.ph100:                                        ; preds = %.lr.ph100.preheader, %.loopexit
  %41 = phi i64 [ %44, %.loopexit ], [ %.pre111, %.lr.ph100.preheader ]
  %.06999 = phi i64 [ %42, %.loopexit ], [ 0, %.lr.ph100.preheader ]
  %42 = add nuw nsw i64 %.06999, 1
  %43 = getelementptr inbounds nuw i64, ptr %7, i64 %42
  %44 = load i64, ptr %43, align 8, !tbaa !17
  %45 = icmp slt i64 %41, %44
  br i1 %45, label %.lr.ph98, label %.loopexit

.lr.ph98:                                         ; preds = %.lr.ph100
  %46 = getelementptr inbounds nuw double, ptr %1, i64 %.06999
  br label %47

47:                                               ; preds = %.lr.ph98, %47
  %.097 = phi i64 [ %41, %.lr.ph98 ], [ %57, %47 ]
  %48 = getelementptr inbounds double, ptr %14, i64 %.097
  %49 = load double, ptr %48, align 8, !tbaa !3
  %50 = load double, ptr %46, align 8, !tbaa !3
  %51 = getelementptr inbounds i64, ptr %9, i64 %.097
  %52 = load i64, ptr %51, align 8, !tbaa !17
  %53 = getelementptr inbounds double, ptr %2, i64 %52
  %54 = load double, ptr %53, align 8, !tbaa !3
  %55 = fneg double %49
  %56 = tail call double @llvm.fmuladd.f64(double %55, double %50, double %54)
  store double %56, ptr %53, align 8, !tbaa !3
  %57 = add nsw i64 %.097, 1
  %exitcond108.not = icmp eq i64 %57, %44
  br i1 %exitcond108.not, label %.loopexit, label %47, !llvm.loop !38

58:                                               ; preds = %38
  %59 = fcmp oeq double %3, 1.000000e+00
  %60 = icmp sgt i64 %11, 0
  br i1 %59, label %.preheader81, label %.preheader84

.preheader84:                                     ; preds = %58
  br i1 %60, label %.lr.ph92.preheader, label %.loopexit79

.lr.ph92.preheader:                               ; preds = %.preheader84
  %.pre = load i64, ptr %7, align 8, !tbaa !17
  br label %.lr.ph92

.preheader81:                                     ; preds = %58
  br i1 %60, label %.lr.ph96.preheader, label %.loopexit79

.lr.ph96.preheader:                               ; preds = %.preheader81
  %.pre110 = load i64, ptr %7, align 8, !tbaa !17
  br label %.lr.ph96

.loopexit80:                                      ; preds = %67, %.lr.ph96
  %exitcond107.not = icmp eq i64 %62, %11
  br i1 %exitcond107.not, label %.loopexit79, label %.lr.ph96, !llvm.loop !39

.lr.ph96:                                         ; preds = %.lr.ph96.preheader, %.loopexit80
  %61 = phi i64 [ %64, %.loopexit80 ], [ %.pre110, %.lr.ph96.preheader ]
  %.17095 = phi i64 [ %62, %.loopexit80 ], [ 0, %.lr.ph96.preheader ]
  %62 = add nuw nsw i64 %.17095, 1
  %63 = getelementptr inbounds nuw i64, ptr %7, i64 %62
  %64 = load i64, ptr %63, align 8, !tbaa !17
  %65 = icmp slt i64 %61, %64
  br i1 %65, label %.lr.ph94, label %.loopexit80

.lr.ph94:                                         ; preds = %.lr.ph96
  %66 = getelementptr inbounds nuw double, ptr %1, i64 %.17095
  br label %67

67:                                               ; preds = %.lr.ph94, %67
  %.193 = phi i64 [ %61, %.lr.ph94 ], [ %76, %67 ]
  %68 = getelementptr inbounds double, ptr %14, i64 %.193
  %69 = load double, ptr %68, align 8, !tbaa !3
  %70 = load double, ptr %66, align 8, !tbaa !3
  %71 = getelementptr inbounds i64, ptr %9, i64 %.193
  %72 = load i64, ptr %71, align 8, !tbaa !17
  %73 = getelementptr inbounds double, ptr %2, i64 %72
  %74 = load double, ptr %73, align 8, !tbaa !3
  %75 = tail call double @llvm.fmuladd.f64(double %69, double %70, double %74)
  store double %75, ptr %73, align 8, !tbaa !3
  %76 = add nsw i64 %.193, 1
  %exitcond106.not = icmp eq i64 %76, %64
  br i1 %exitcond106.not, label %.loopexit80, label %67, !llvm.loop !40

.loopexit83:                                      ; preds = %83, %.lr.ph92
  %exitcond105.not = icmp eq i64 %78, %11
  br i1 %exitcond105.not, label %.loopexit79, label %.lr.ph92, !llvm.loop !41

.lr.ph92:                                         ; preds = %.lr.ph92.preheader, %.loopexit83
  %77 = phi i64 [ %80, %.loopexit83 ], [ %.pre, %.lr.ph92.preheader ]
  %.27191 = phi i64 [ %78, %.loopexit83 ], [ 0, %.lr.ph92.preheader ]
  %78 = add nuw nsw i64 %.27191, 1
  %79 = getelementptr inbounds nuw i64, ptr %7, i64 %78
  %80 = load i64, ptr %79, align 8, !tbaa !17
  %81 = icmp slt i64 %77, %80
  br i1 %81, label %.lr.ph, label %.loopexit83

.lr.ph:                                           ; preds = %.lr.ph92
  %82 = getelementptr inbounds nuw double, ptr %1, i64 %.27191
  br label %83

83:                                               ; preds = %.lr.ph, %83
  %.290 = phi i64 [ %77, %.lr.ph ], [ %93, %83 ]
  %84 = getelementptr inbounds double, ptr %14, i64 %.290
  %85 = load double, ptr %84, align 8, !tbaa !3
  %86 = fmul double %3, %85
  %87 = load double, ptr %82, align 8, !tbaa !3
  %88 = getelementptr inbounds i64, ptr %9, i64 %.290
  %89 = load i64, ptr %88, align 8, !tbaa !17
  %90 = getelementptr inbounds double, ptr %2, i64 %89
  %91 = load double, ptr %90, align 8, !tbaa !3
  %92 = tail call double @llvm.fmuladd.f64(double %86, double %87, double %91)
  store double %92, ptr %90, align 8, !tbaa !3
  %93 = add nsw i64 %.290, 1
  %exitcond.not = icmp eq i64 %93, %80
  br i1 %exitcond.not, label %.loopexit83, label %83, !llvm.loop !42

.loopexit79:                                      ; preds = %.loopexit83, %.loopexit80, %.loopexit, %.preheader84, %.preheader81, %.preheader, %vec_set_scalar.exit
  ret void
}